*** Aborted at 1699248356 (unix time) try "date -d @1699248356" if you are using GNU date ***
PC: @     0x7f5f1489400b gsignal
*** SIGABRT (@0x3f5000e7ce7) received by PID 949479 (TID 0x7f5705f4f700) from PID 949479; stack trace: ***
    @          0x11ce481 google::(anonymous namespace)::FailureSignalHandler()
    @     0x7f5f15295420 (unknown)
    @     0x7f5f1489400b gsignal
    @     0x7f5f14873859 abort
    @     0x7f5f152382e7 std::sys::unix::abort_internal::h380a1bff7fa239fa
    @     0x7f5f15236046 __rust_drop_panic
    @     0x7f5f1524683f panic_unwind::real_imp::panic::exception_cleanup::h9f02409e60385b13
    @           0xd0b62e _ZNKSt13__future_base12_Task_setterISt10unique_ptrINS_7_ResultIvEENS_12_Result_base8_DeleterEEZNS_11_Task_stateISt5_BindIFZN4ista3Sta11readLibertyERSt6vectorINSt7__cxx1112basic_stringIcSt11char_traitsIcESaIcEEESaISH_EEEUlvE_vEESaIiEFvvEE6_M_runEvEUlvE_vEclEv
    @           0xd0b254 _ZSt13__invoke_implISt10unique_ptrINSt13__future_base7_ResultIvEENS1_12_Result_base8_DeleterEERNS1_12_Task_setterIS6_ZNS1_11_Task_stateISt5_BindIFZN4ista3Sta11readLibertyERSt6vectorINSt7__cxx1112basic_stringIcSt11char_traitsIcESaIcEEESaISI_EEEUlvE_vEESaIiEFvvEE6_M_runEvEUlvE_vEEJEET_St14__invoke_otherOT0_DpOT1_
    @           0xd0ac50 _ZSt10__invoke_rISt10unique_ptrINSt13__future_base12_Result_baseENS2_8_DeleterEERNS1_12_Task_setterIS0_INS1_7_ResultIvEES3_EZNS1_11_Task_stateISt5_BindIFZN4ista3Sta11readLibertyERSt6vectorINSt7__cxx1112basic_stringIcSt11char_traitsIcESaIcEEESaISJ_EEEUlvE_vEESaIiEFvvEE6_M_runEvEUlvE_vEEJEENSt9enable_ifIX16is_invocable_r_vIT_T0_DpT1_EESX_E4typeEOSY_DpOSZ_
    @           0xd0a7e3 _ZNSt17_Function_handlerIFSt10unique_ptrINSt13__future_base12_Result_baseENS2_8_DeleterEEvENS1_12_Task_setterIS0_INS1_7_ResultIvEES3_EZNS1_11_Task_stateISt5_BindIFZN4ista3Sta11readLibertyERSt6vectorINSt7__cxx1112basic_stringIcSt11char_traitsIcESaIcEEESaISK_EEEUlvE_vEESaIiEFvvEE6_M_runEvEUlvE_vEEE9_M_invokeERKSt9_Any_data
    @           0xd18f03 std::function<>::operator()()
    @           0xd118d3 std::__future_base::_State_baseV2::_M_do_set()
    @           0xd37ef7 std::__invoke_impl<>()
    @           0xd2518d std::__invoke<>()
    @           0xd18b32 _ZZSt9call_onceIMNSt13__future_base13_State_baseV2EFvPSt8functionIFSt10unique_ptrINS0_12_Result_baseENS4_8_DeleterEEvEEPbEJPS1_S9_SA_EEvRSt9once_flagOT_DpOT0_ENKUlvE_clEv
    @           0xd18b5d _ZZSt9call_onceIMNSt13__future_base13_State_baseV2EFvPSt8functionIFSt10unique_ptrINS0_12_Result_baseENS4_8_DeleterEEvEEPbEJPS1_S9_SA_EEvRSt9once_flagOT_DpOT0_ENKUlvE0_clEv
    @           0xd18b6e _ZZSt9call_onceIMNSt13__future_base13_State_baseV2EFvPSt8functionIFSt10unique_ptrINS0_12_Result_baseENS4_8_DeleterEEvEEPbEJPS1_S9_SA_EEvRSt9once_flagOT_DpOT0_ENUlvE0_4_FUNEv
    @     0x7f5f152924df __pthread_once_slow
    @           0xd0bd10 __gthread_once()
    @           0xd18bfa std::call_once<>()
    @           0xd11529 std::__future_base::_State_baseV2::_M_set_result()
    @           0xd09f54 _ZNSt13__future_base11_Task_stateISt5_BindIFZN4ista3Sta11readLibertyERSt6vectorINSt7__cxx1112basic_stringIcSt11char_traitsIcESaIcEEESaISA_EEEUlvE_vEESaIiEFvvEE6_M_runEv
    @           0xd268e1 std::packaged_task<>::operator()()
    @           0xd00dbc _ZZN10ThreadPool7enqueueIZN4ista3Sta11readLibertyERSt6vectorINSt7__cxx1112basic_stringIcSt11char_traitsIcESaIcEEESaIS9_EEEUlvE_JEEESt6futureINSt9result_ofIFT_DpT0_EE4typeEEOSG_DpOSH_ENKUlvE_clEv
    @           0xd07922 _ZSt13__invoke_implIvRZN10ThreadPool7enqueueIZN4ista3Sta11readLibertyERSt6vectorINSt7__cxx1112basic_stringIcSt11char_traitsIcESaIcEEESaISA_EEEUlvE_JEEESt6futureINSt9result_ofIFT_DpT0_EE4typeEEOSH_DpOSI_EUlvE_JEESH_St14__invoke_otherOT0_DpOT1_
    @           0xd074b0 _ZSt10__invoke_rIvRZN10ThreadPool7enqueueIZN4ista3Sta11readLibertyERSt6vectorINSt7__cxx1112basic_stringIcSt11char_traitsIcESaIcEEESaISA_EEEUlvE_JEEESt6futureINSt9result_ofIFT_DpT0_EE4typeEEOSH_DpOSI_EUlvE_JEENSt9enable_ifIX16is_invocable_r_vISH_T0_DpT1_EESH_E4typeEOSU_DpOSV_
    @           0xd06a99 _ZNSt17_Function_handlerIFvvEZN10ThreadPool7enqueueIZN4ista3Sta11readLibertyERSt6vectorINSt7__cxx1112basic_stringIcSt11char_traitsIcESaIcEEESaISB_EEEUlvE_JEEESt6futureINSt9result_ofIFT_DpT0_EE4typeEEOSI_DpOSJ_EUlvE_E9_M_invokeERKSt9_Any_data
    @           0xd19514 std::function<>::operator()()
    @           0xd11c32 _ZZN10ThreadPoolC4EmENKUlvE_clEv
    @           0xda2b68 _ZSt13__invoke_implIvZN10ThreadPoolC4EmEUlvE_JEET_St14__invoke_otherOT0_DpOT1_
    @           0xda2369 _ZSt8__invokeIZN10ThreadPoolC4EmEUlvE_JEENSt15__invoke_resultIT_JDpT0_EE4typeEOS3_DpOS4_
*** Aborted at 1699251116 (unix time) try "date -d @1699251116" if you are using GNU date ***
PC: @     0x7f4c05d5300b gsignal
*** SIGABRT (@0x3f5000f1a11) received by PID 989713 (TID 0x7f4404428700) from PID 989713; stack trace: ***
    @          0x11ce481 google::(anonymous namespace)::FailureSignalHandler()
    @     0x7f4c06754420 (unknown)
    @     0x7f4c05d5300b gsignal
    @     0x7f4c05d32859 abort
    @     0x7f4c066f7297 std::sys::unix::abort_internal::h380a1bff7fa239fa
    @     0x7f4c066f4ff6 __rust_drop_panic
    @     0x7f4c067057ef panic_unwind::real_imp::panic::exception_cleanup::h9f02409e60385b13
    @           0xd0b62e _ZNKSt13__future_base12_Task_setterISt10unique_ptrINS_7_ResultIvEENS_12_Result_base8_DeleterEEZNS_11_Task_stateISt5_BindIFZN4ista3Sta11readLibertyERSt6vectorINSt7__cxx1112basic_stringIcSt11char_traitsIcESaIcEEESaISH_EEEUlvE_vEESaIiEFvvEE6_M_runEvEUlvE_vEclEv
    @           0xd0b254 _ZSt13__invoke_implISt10unique_ptrINSt13__future_base7_ResultIvEENS1_12_Result_base8_DeleterEERNS1_12_Task_setterIS6_ZNS1_11_Task_stateISt5_BindIFZN4ista3Sta11readLibertyERSt6vectorINSt7__cxx1112basic_stringIcSt11char_traitsIcESaIcEEESaISI_EEEUlvE_vEESaIiEFvvEE6_M_runEvEUlvE_vEEJEET_St14__invoke_otherOT0_DpOT1_
    @           0xd0ac50 _ZSt10__invoke_rISt10unique_ptrINSt13__future_base12_Result_baseENS2_8_DeleterEERNS1_12_Task_setterIS0_INS1_7_ResultIvEES3_EZNS1_11_Task_stateISt5_BindIFZN4ista3Sta11readLibertyERSt6vectorINSt7__cxx1112basic_stringIcSt11char_traitsIcESaIcEEESaISJ_EEEUlvE_vEESaIiEFvvEE6_M_runEvEUlvE_vEEJEENSt9enable_ifIX16is_invocable_r_vIT_T0_DpT1_EESX_E4typeEOSY_DpOSZ_
    @           0xd0a7e3 _ZNSt17_Function_handlerIFSt10unique_ptrINSt13__future_base12_Result_baseENS2_8_DeleterEEvENS1_12_Task_setterIS0_INS1_7_ResultIvEES3_EZNS1_11_Task_stateISt5_BindIFZN4ista3Sta11readLibertyERSt6vectorINSt7__cxx1112basic_stringIcSt11char_traitsIcESaIcEEESaISK_EEEUlvE_vEESaIiEFvvEE6_M_runEvEUlvE_vEEE9_M_invokeERKSt9_Any_data
    @           0xd18f03 std::function<>::operator()()
    @           0xd118d3 std::__future_base::_State_baseV2::_M_do_set()
    @           0xd37ef7 std::__invoke_impl<>()
    @           0xd2518d std::__invoke<>()
    @           0xd18b32 _ZZSt9call_onceIMNSt13__future_base13_State_baseV2EFvPSt8functionIFSt10unique_ptrINS0_12_Result_baseENS4_8_DeleterEEvEEPbEJPS1_S9_SA_EEvRSt9once_flagOT_DpOT0_ENKUlvE_clEv
    @           0xd18b5d _ZZSt9call_onceIMNSt13__future_base13_State_baseV2EFvPSt8functionIFSt10unique_ptrINS0_12_Result_baseENS4_8_DeleterEEvEEPbEJPS1_S9_SA_EEvRSt9once_flagOT_DpOT0_ENKUlvE0_clEv
    @           0xd18b6e _ZZSt9call_onceIMNSt13__future_base13_State_baseV2EFvPSt8functionIFSt10unique_ptrINS0_12_Result_baseENS4_8_DeleterEEvEEPbEJPS1_S9_SA_EEvRSt9once_flagOT_DpOT0_ENUlvE0_4_FUNEv
    @     0x7f4c067514df __pthread_once_slow
    @           0xd0bd10 __gthread_once()
    @           0xd18bfa std::call_once<>()
    @           0xd11529 std::__future_base::_State_baseV2::_M_set_result()
    @           0xd09f54 _ZNSt13__future_base11_Task_stateISt5_BindIFZN4ista3Sta11readLibertyERSt6vectorINSt7__cxx1112basic_stringIcSt11char_traitsIcESaIcEEESaISA_EEEUlvE_vEESaIiEFvvEE6_M_runEv
    @           0xd268e1 std::packaged_task<>::operator()()
    @           0xd00dbc _ZZN10ThreadPool7enqueueIZN4ista3Sta11readLibertyERSt6vectorINSt7__cxx1112basic_stringIcSt11char_traitsIcESaIcEEESaIS9_EEEUlvE_JEEESt6futureINSt9result_ofIFT_DpT0_EE4typeEEOSG_DpOSH_ENKUlvE_clEv
    @           0xd07922 _ZSt13__invoke_implIvRZN10ThreadPool7enqueueIZN4ista3Sta11readLibertyERSt6vectorINSt7__cxx1112basic_stringIcSt11char_traitsIcESaIcEEESaISA_EEEUlvE_JEEESt6futureINSt9result_ofIFT_DpT0_EE4typeEEOSH_DpOSI_EUlvE_JEESH_St14__invoke_otherOT0_DpOT1_
    @           0xd074b0 _ZSt10__invoke_rIvRZN10ThreadPool7enqueueIZN4ista3Sta11readLibertyERSt6vectorINSt7__cxx1112basic_stringIcSt11char_traitsIcESaIcEEESaISA_EEEUlvE_JEEESt6futureINSt9result_ofIFT_DpT0_EE4typeEEOSH_DpOSI_EUlvE_JEENSt9enable_ifIX16is_invocable_r_vISH_T0_DpT1_EESH_E4typeEOSU_DpOSV_
    @           0xd06a99 _ZNSt17_Function_handlerIFvvEZN10ThreadPool7enqueueIZN4ista3Sta11readLibertyERSt6vectorINSt7__cxx1112basic_stringIcSt11char_traitsIcESaIcEEESaISB_EEEUlvE_JEEESt6futureINSt9result_ofIFT_DpT0_EE4typeEEOSI_DpOSJ_EUlvE_E9_M_invokeERKSt9_Any_data
    @           0xd19514 std::function<>::operator()()
    @           0xd11c32 _ZZN10ThreadPoolC4EmENKUlvE_clEv
    @           0xda2b68 _ZSt13__invoke_implIvZN10ThreadPoolC4EmEUlvE_JEET_St14__invoke_otherOT0_DpOT1_
    @           0xda2369 _ZSt8__invokeIZN10ThreadPoolC4EmEUlvE_JEENSt15__invoke_resultIT_JDpT0_EE4typeEOS3_DpOS4_
*** Aborted at 1699251172 (unix time) try "date -d @1699251172" if you are using GNU date ***
PC: @     0x7f88d05a500b gsignal
*** SIGABRT (@0x3f5000f1e7b) received by PID 990843 (TID 0x7f80c2461700) from PID 990843; stack trace: ***
    @          0x11ce481 google::(anonymous namespace)::FailureSignalHandler()
    @     0x7f88d0fa6420 (unknown)
    @     0x7f88d05a500b gsignal
    @     0x7f88d0584859 abort
    @     0x7f88d0f49297 std::sys::unix::abort_internal::h380a1bff7fa239fa
    @     0x7f88d0f46ff6 __rust_drop_panic
    @     0x7f88d0f577ef panic_unwind::real_imp::panic::exception_cleanup::h9f02409e60385b13
    @           0xd0b62e _ZNKSt13__future_base12_Task_setterISt10unique_ptrINS_7_ResultIvEENS_12_Result_base8_DeleterEEZNS_11_Task_stateISt5_BindIFZN4ista3Sta11readLibertyERSt6vectorINSt7__cxx1112basic_stringIcSt11char_traitsIcESaIcEEESaISH_EEEUlvE_vEESaIiEFvvEE6_M_runEvEUlvE_vEclEv
    @           0xd0b254 _ZSt13__invoke_implISt10unique_ptrINSt13__future_base7_ResultIvEENS1_12_Result_base8_DeleterEERNS1_12_Task_setterIS6_ZNS1_11_Task_stateISt5_BindIFZN4ista3Sta11readLibertyERSt6vectorINSt7__cxx1112basic_stringIcSt11char_traitsIcESaIcEEESaISI_EEEUlvE_vEESaIiEFvvEE6_M_runEvEUlvE_vEEJEET_St14__invoke_otherOT0_DpOT1_
    @           0xd0ac50 _ZSt10__invoke_rISt10unique_ptrINSt13__future_base12_Result_baseENS2_8_DeleterEERNS1_12_Task_setterIS0_INS1_7_ResultIvEES3_EZNS1_11_Task_stateISt5_BindIFZN4ista3Sta11readLibertyERSt6vectorINSt7__cxx1112basic_stringIcSt11char_traitsIcESaIcEEESaISJ_EEEUlvE_vEESaIiEFvvEE6_M_runEvEUlvE_vEEJEENSt9enable_ifIX16is_invocable_r_vIT_T0_DpT1_EESX_E4typeEOSY_DpOSZ_
    @           0xd0a7e3 _ZNSt17_Function_handlerIFSt10unique_ptrINSt13__future_base12_Result_baseENS2_8_DeleterEEvENS1_12_Task_setterIS0_INS1_7_ResultIvEES3_EZNS1_11_Task_stateISt5_BindIFZN4ista3Sta11readLibertyERSt6vectorINSt7__cxx1112basic_stringIcSt11char_traitsIcESaIcEEESaISK_EEEUlvE_vEESaIiEFvvEE6_M_runEvEUlvE_vEEE9_M_invokeERKSt9_Any_data
    @           0xd18f03 std::function<>::operator()()
    @           0xd118d3 std::__future_base::_State_baseV2::_M_do_set()
    @           0xd37ef7 std::__invoke_impl<>()
    @           0xd2518d std::__invoke<>()
    @           0xd18b32 _ZZSt9call_onceIMNSt13__future_base13_State_baseV2EFvPSt8functionIFSt10unique_ptrINS0_12_Result_baseENS4_8_DeleterEEvEEPbEJPS1_S9_SA_EEvRSt9once_flagOT_DpOT0_ENKUlvE_clEv
    @           0xd18b5d _ZZSt9call_onceIMNSt13__future_base13_State_baseV2EFvPSt8functionIFSt10unique_ptrINS0_12_Result_baseENS4_8_DeleterEEvEEPbEJPS1_S9_SA_EEvRSt9once_flagOT_DpOT0_ENKUlvE0_clEv
    @           0xd18b6e _ZZSt9call_onceIMNSt13__future_base13_State_baseV2EFvPSt8functionIFSt10unique_ptrINS0_12_Result_baseENS4_8_DeleterEEvEEPbEJPS1_S9_SA_EEvRSt9once_flagOT_DpOT0_ENUlvE0_4_FUNEv
    @     0x7f88d0fa34df __pthread_once_slow
    @           0xd0bd10 __gthread_once()
    @           0xd18bfa std::call_once<>()
    @           0xd11529 std::__future_base::_State_baseV2::_M_set_result()
    @           0xd09f54 _ZNSt13__future_base11_Task_stateISt5_BindIFZN4ista3Sta11readLibertyERSt6vectorINSt7__cxx1112basic_stringIcSt11char_traitsIcESaIcEEESaISA_EEEUlvE_vEESaIiEFvvEE6_M_runEv
    @           0xd268e1 std::packaged_task<>::operator()()
    @           0xd00dbc _ZZN10ThreadPool7enqueueIZN4ista3Sta11readLibertyERSt6vectorINSt7__cxx1112basic_stringIcSt11char_traitsIcESaIcEEESaIS9_EEEUlvE_JEEESt6futureINSt9result_ofIFT_DpT0_EE4typeEEOSG_DpOSH_ENKUlvE_clEv
    @           0xd07922 _ZSt13__invoke_implIvRZN10ThreadPool7enqueueIZN4ista3Sta11readLibertyERSt6vectorINSt7__cxx1112basic_stringIcSt11char_traitsIcESaIcEEESaISA_EEEUlvE_JEEESt6futureINSt9result_ofIFT_DpT0_EE4typeEEOSH_DpOSI_EUlvE_JEESH_St14__invoke_otherOT0_DpOT1_
    @           0xd074b0 _ZSt10__invoke_rIvRZN10ThreadPool7enqueueIZN4ista3Sta11readLibertyERSt6vectorINSt7__cxx1112basic_stringIcSt11char_traitsIcESaIcEEESaISA_EEEUlvE_JEEESt6futureINSt9result_ofIFT_DpT0_EE4typeEEOSH_DpOSI_EUlvE_JEENSt9enable_ifIX16is_invocable_r_vISH_T0_DpT1_EESH_E4typeEOSU_DpOSV_
    @           0xd06a99 _ZNSt17_Function_handlerIFvvEZN10ThreadPool7enqueueIZN4ista3Sta11readLibertyERSt6vectorINSt7__cxx1112basic_stringIcSt11char_traitsIcESaIcEEESaISB_EEEUlvE_JEEESt6futureINSt9result_ofIFT_DpT0_EE4typeEEOSI_DpOSJ_EUlvE_E9_M_invokeERKSt9_Any_data
    @           0xd19514 std::function<>::operator()()
    @           0xd11c32 _ZZN10ThreadPoolC4EmENKUlvE_clEv
    @           0xda2b68 _ZSt13__invoke_implIvZN10ThreadPoolC4EmEUlvE_JEET_St14__invoke_otherOT0_DpOT1_
    @           0xda2369 _ZSt8__invokeIZN10ThreadPoolC4EmEUlvE_JEENSt15__invoke_resultIT_JDpT0_EE4typeEOS3_DpOS4_
*** Aborted at 1699251659 (unix time) try "date -d @1699251659" if you are using GNU date ***
PC: @     0x7f723eb3400b gsignal
*** SIGABRT (@0x3f5000f23d6) received by PID 992214 (TID 0x7f723eabf3c0) from PID 992214; stack trace: ***
    @          0x11ce481 google::(anonymous namespace)::FailureSignalHandler()
    @     0x7f723f535420 (unknown)
    @     0x7f723eb3400b gsignal
    @     0x7f723eb13859 abort
    @     0x7f723f446fc7 std::sys::unix::abort_internal::h380a1bff7fa239fa
    @     0x7f723f4456a0 rust_panic
    @     0x7f723f4455a2 std::panicking::rust_panic_with_hook::hceaf38da6d9db792
    @     0x7f723f4452e7 std::panicking::begin_panic_handler::_$u7b$$u7b$closure$u7d$$u7d$::h2bce3ed2516af7df
    @     0x7f723f4442f6 std::sys_common::backtrace::__rust_end_short_backtrace::h090f3faf8f98a395
    @     0x7f723f445032 rust_begin_unwind
    @     0x7f723f40b923 core::panicking::panic_fmt::h4ec8274704d163a3
    @     0x7f723f40bdc3 core::result::unwrap_failed::h170bc2721a6c6ff2
    @     0x7f723f41f6a9 spef_parser::spef_parser::parse_spef_file::h96615392599d1d4d
    @     0x7f723f4226b0 rust_parser_spef
    @          0x1084724 ista::SpefRustReader::read()
    @           0xde800a ista::StaBuildRCTree::operator()()
    @           0xcf39ae ista::Sta::readSpef()
    @          0x102c157 ieda::CmdProc()
    @     0x7f723f0fe052 TclNRRunCallbacks
    @     0x7f723f0fff74 TclEvalEx
    @     0x7f723f1b9179 Tcl_FSEvalFileEx
    @     0x7f723f1c0a57 Tcl_MainEx
    @          0x1030314 ieda::UserShell::userMain()
    @           0xca980c main
    @     0x7f723eb15083 __libc_start_main
    @           0xcc044e _start
*** Aborted at 1699593502 (unix time) try "date -d @1699593502" if you are using GNU date ***
PC: @     0x7fcd3ba5100b gsignal
*** SIGABRT (@0x3f200396265) received by PID 3760741 (TID 0x7fcd3b821d40) from PID 3760741; stack trace: ***
    @     0x7fcd3bea6631 (unknown)
    @     0x7fcd3ba51090 (unknown)
    @     0x7fcd3ba5100b gsignal
    @     0x7fcd3ba30859 abort
    @     0x7fcd3c13d417 std::sys::unix::abort_internal::h722ce276a7cfc083
    @     0x7fcd3c13af10 rust_panic
    @     0x7fcd3c13ae12 std::panicking::rust_panic_with_hook::h75cd912a39a34e8a
    @     0x7fcd3c13ab57 std::panicking::begin_panic_handler::_$u7b$$u7b$closure$u7d$$u7d$::h1498b46f7849e167
    @     0x7fcd3c1397f6 std::sys_common::backtrace::__rust_end_short_backtrace::hd36a39b27b98086b
    @     0x7fcd3c13a8a2 rust_begin_unwind
    @     0x7fcd3c07ed53 core::panicking::panic_fmt::h98ef273141454c23
    @     0x7fcd3c0e757d vcd_parser::vcd_parser::parse_vcd_file::_$u7b$$u7b$closure$u7d$$u7d$::h25e4ace192c2695c
    @     0x7fcd3c08ef34 core::result::Result$LT$T$C$E$GT$::unwrap_or_else::h3ccfca96a8acc205
    @     0x7fcd3c09ce50 vcd_parser::vcd_parser::parse_vcd_file::hf107a70206b75b35
    @     0x7fcd3c0a1736 rust_parse_vcd
    @     0x55c3fd9d3680 ieda::RustVcdReader::readVcdFile()
    @     0x55c3fd9cbcb3 main
    @     0x7fcd3ba32083 __libc_start_main
    @     0x55c3fd9cbaee _start
*** Aborted at 1699593556 (unix time) try "date -d @1699593556" if you are using GNU date ***
PC: @     0x7fbfdc10600b gsignal
*** SIGABRT (@0x3f200396afa) received by PID 3762938 (TID 0x7fbfdbed5840) from PID 3762938; stack trace: ***
    @     0x7fbfdc4ce631 (unknown)
    @     0x7fbfdc106090 (unknown)
    @     0x7fbfdc10600b gsignal
    @     0x7fbfdc0e5859 abort
    @     0x7fbfdc765417 std::sys::unix::abort_internal::h722ce276a7cfc083
    @     0x7fbfdc762f10 rust_panic
    @     0x7fbfdc762e12 std::panicking::rust_panic_with_hook::h75cd912a39a34e8a
    @     0x7fbfdc762b57 std::panicking::begin_panic_handler::_$u7b$$u7b$closure$u7d$$u7d$::h1498b46f7849e167
    @     0x7fbfdc7617f6 std::sys_common::backtrace::__rust_end_short_backtrace::hd36a39b27b98086b
    @     0x7fbfdc7628a2 rust_begin_unwind
    @     0x7fbfdc6a6d53 core::panicking::panic_fmt::h98ef273141454c23
    @     0x7fbfdc70f57d vcd_parser::vcd_parser::parse_vcd_file::_$u7b$$u7b$closure$u7d$$u7d$::h25e4ace192c2695c
    @     0x7fbfdc6b6f34 core::result::Result$LT$T$C$E$GT$::unwrap_or_else::h3ccfca96a8acc205
    @     0x7fbfdc6c4e50 vcd_parser::vcd_parser::parse_vcd_file::hf107a70206b75b35
    @     0x7fbfdc6c9736 rust_parse_vcd
    @     0x561f0f3313f4 ieda::RustVcdReader::readVcdFile()
    @     0x561f0f329c67 main
    @     0x7fbfdc0e7083 __libc_start_main
    @     0x561f0f329aae _start
